target datalayout = "e-m:e-p270:32:32-p271:32:32-p272:64:64-i64:64-i128:128-f80:128-n8:16:32:64-S128"
target triple = "x86_64-pc-linux-gnu"

%struct.H5O_layout_t = type { i32, i32, ptr, %union.anon, %struct.H5O_storage_t }
%union.anon = type { %struct.H5O_layout_chunk_t }
%struct.H5O_layout_chunk_t = type { i32, i8, i32, [33 x i32], i32, i32, i64, i64, [33 x i64], [33 x i64], [33 x i64], [33 x i64], %union.anon.0 }
%union.anon.0 = type { %struct.H5O_layout_chunk_earray_t }
%struct.H5O_layout_chunk_earray_t = type { %struct.anon.1, i32, [33 x i32], [33 x i64], [33 x i64] }
%struct.anon.1 = type { i8, i8, i8, i8, i8 }
%struct.H5O_storage_t = type { i32, %union.anon.3 }
%union.anon.3 = type { %struct.H5O_storage_virtual_t }
%struct.H5O_storage_virtual_t = type { %struct.H5HG_t, i64, ptr, i64, [32 x i64], i32, i64, i64, i64, i8 }
%struct.H5HG_t = type { i64, i64 }
%struct.H5O_storage_chunk_t = type { i32, i64, ptr, %union.anon.4 }
%union.anon.4 = type { %struct.H5O_storage_chunk_btree_t }
%struct.H5O_storage_chunk_btree_t = type { i64, ptr }
%struct.H5O_storage_compact_t = type { i8, i64, ptr }

@H5_H5O_layout_t_reg_free_list = global { i8, [3 x i8], i32, i32, [4 x i8], ptr, i64, ptr } { i8 0, [3 x i8] zeroinitializer, i32 0, i32 0, [4 x i8] zeroinitializer, ptr @.str.1, i64 2256, ptr null }, align 8
@H5O_init_g = external global i8, align 1
@H5_libterm_g = external global i8, align 1
@.str.2 = private unnamed_addr constant [103 x i8] c"generated/home/dtcxzyw/WorkSpace/Projects/compilers/llvm-opt-benchmark/bench/hdf5/hdf5/src/H5Olayout.c\00", align 1
@H5E_CANTALLOC_g = external global i64, align 8
@H5E_OHDR_g = external global i64, align 8
@.str.40 = private unnamed_addr constant [21 x i8] c"Invalid layout class\00", align 1
@H5E_CANTENCODE_g = external global i64, align 8
@__func__.H5O__layout_copy = private unnamed_addr constant [17 x i8] c"H5O__layout_copy\00", align 1
@.str.42 = private unnamed_addr constant [33 x i8] c"layout message allocation failed\00", align 1
@H5E_NOSPACE_g = external global i64, align 8
@.str.43 = private unnamed_addr constant [46 x i8] c"unable to allocate memory for compact dataset\00", align 1
@H5E_CANTCOPY_g = external global i64, align 8
@.str.44 = private unnamed_addr constant [30 x i8] c"unable to copy virtual layout\00", align 1

; Function Attrs: nounwind uwtable
define internal ptr @H5O__layout_copy(ptr noundef %0, ptr noundef %1) #0 {
  %3 = alloca ptr, align 8
  %4 = alloca ptr, align 8
  %5 = alloca ptr, align 8
  %6 = alloca ptr, align 8
  %7 = alloca ptr, align 8
  %8 = alloca i8, align 1
  store ptr %0, ptr %3, align 8, !tbaa !20
  store ptr %1, ptr %4, align 8, !tbaa !20
  call void @llvm.lifetime.start.p0(i64 8, ptr %5) #10
  %9 = load ptr, ptr %3, align 8, !tbaa !20
  store ptr %9, ptr %5, align 8, !tbaa !18
  call void @llvm.lifetime.start.p0(i64 8, ptr %6) #10
  %10 = load ptr, ptr %4, align 8, !tbaa !20
  store ptr %10, ptr %6, align 8, !tbaa !18
  call void @llvm.lifetime.start.p0(i64 8, ptr %7) #10
  store ptr null, ptr %7, align 8, !tbaa !20
  call void @llvm.lifetime.start.p0(i64 1, ptr %8) #10
  store i8 0, ptr %8, align 1, !tbaa !21
  %11 = load i8, ptr @H5O_init_g, align 1, !tbaa !21, !range !23, !noundef !24
  %12 = trunc i8 %11 to i1
  br i1 %12, label %17, label %13

13:                                               ; preds = %2
  %14 = load i8, ptr @H5_libterm_g, align 1, !tbaa !21, !range !23, !noundef !24
  %15 = trunc i8 %14 to i1
  %16 = xor i1 %15, true
  br label %17

17:                                               ; preds = %13, %2
  %18 = phi i1 [ true, %2 ], [ %16, %13 ]
  %19 = xor i1 %18, true
  %20 = xor i1 %19, true
  %21 = zext i1 %20 to i32
  %22 = sext i32 %21 to i64
  %23 = call i64 @llvm.expect.i64(i64 %22, i64 1)
  %24 = icmp ne i64 %23, 0
  br i1 %24, label %25, label %182

25:                                               ; preds = %17
  %26 = load ptr, ptr %6, align 8, !tbaa !18
  %27 = icmp ne ptr %26, null
  br i1 %27, label %50, label %28

28:                                               ; preds = %25
  %29 = call noalias ptr @H5FL_reg_malloc(ptr noundef @H5_H5O_layout_t_reg_free_list)
  store ptr %29, ptr %6, align 8, !tbaa !18
  %30 = icmp eq ptr null, %29
  br i1 %30, label %31, label %50

31:                                               ; preds = %28
  br label %32

32:                                               ; preds = %31
  br label %33

33:                                               ; preds = %32
  br label %34

34:                                               ; preds = %33
  %35 = load i64, ptr @H5E_OHDR_g, align 8, !tbaa !14
  %36 = load i64, ptr @H5E_CANTALLOC_g, align 8, !tbaa !14
  %37 = call i32 (ptr, ptr, i32, i64, i64, ptr, ...) @H5E_printf_stack(ptr noundef @.str.2, ptr noundef @__func__.H5O__layout_copy, i32 noundef 971, i64 noundef %35, i64 noundef %36, ptr noundef @.str.42)
  br label %38

38:                                               ; preds = %34
  br label %39

39:                                               ; preds = %38
  store i8 1, ptr %8, align 1, !tbaa !21
  %40 = load i8, ptr %8, align 1, !tbaa !21, !range !23, !noundef !24
  %41 = trunc i8 %40 to i1
  %42 = zext i1 %41 to i8
  store i8 %42, ptr %8, align 1, !tbaa !21
  br label %43

43:                                               ; preds = %39
  br label %44

44:                                               ; preds = %43
  br label %45

45:                                               ; preds = %44
  store ptr null, ptr %7, align 8, !tbaa !20
  br label %171

46:                                               ; No predecessors!
  br label %47

47:                                               ; preds = %46
  br label %48

48:                                               ; preds = %47
  br label %49

49:                                               ; preds = %48
  br label %50

50:                                               ; preds = %49, %28, %25
  %51 = load ptr, ptr %6, align 8, !tbaa !18
  %52 = load ptr, ptr %5, align 8, !tbaa !18
  call void @llvm.memcpy.p0.p0.i64(ptr align 8 %51, ptr align 8 %52, i64 2256, i1 false), !tbaa.struct !78
  %53 = load ptr, ptr %5, align 8, !tbaa !18
  %54 = getelementptr inbounds nuw %struct.H5O_layout_t, ptr %53, i32 0, i32 0
  %55 = load i32, ptr %54, align 8, !tbaa !31
  switch i32 %55, label %150 [
    i32 0, label %56
    i32 1, label %169
    i32 2, label %112
    i32 3, label %125
    i32 -1, label %149
    i32 4, label %149
  ]

56:                                               ; preds = %50
  %57 = load ptr, ptr %5, align 8, !tbaa !18
  %58 = getelementptr inbounds nuw %struct.H5O_layout_t, ptr %57, i32 0, i32 4
  %59 = getelementptr inbounds nuw %struct.H5O_storage_t, ptr %58, i32 0, i32 1
  %60 = getelementptr inbounds nuw %struct.H5O_storage_compact_t, ptr %59, i32 0, i32 1
  %61 = load i64, ptr %60, align 8, !tbaa !29
  %62 = icmp ugt i64 %61, 0
  br i1 %62, label %63, label %110

63:                                               ; preds = %56
  %64 = load ptr, ptr %6, align 8, !tbaa !18
  %65 = getelementptr inbounds nuw %struct.H5O_layout_t, ptr %64, i32 0, i32 4
  %66 = getelementptr inbounds nuw %struct.H5O_storage_t, ptr %65, i32 0, i32 1
  %67 = getelementptr inbounds nuw %struct.H5O_storage_compact_t, ptr %66, i32 0, i32 1
  %68 = load i64, ptr %67, align 8, !tbaa !29
  %69 = call noalias ptr @malloc(i64 noundef %68) #11
  %70 = load ptr, ptr %6, align 8, !tbaa !18
  %71 = getelementptr inbounds nuw %struct.H5O_layout_t, ptr %70, i32 0, i32 4
  %72 = getelementptr inbounds nuw %struct.H5O_storage_t, ptr %71, i32 0, i32 1
  %73 = getelementptr inbounds nuw %struct.H5O_storage_compact_t, ptr %72, i32 0, i32 2
  store ptr %69, ptr %73, align 8, !tbaa !29
  %74 = icmp eq ptr null, %69
  br i1 %74, label %75, label %94

75:                                               ; preds = %63
  br label %76

76:                                               ; preds = %75
  br label %77

77:                                               ; preds = %76
  br label %78

78:                                               ; preds = %77
  %79 = load i64, ptr @H5E_OHDR_g, align 8, !tbaa !14
  %80 = load i64, ptr @H5E_NOSPACE_g, align 8, !tbaa !14
  %81 = call i32 (ptr, ptr, i32, i64, i64, ptr, ...) @H5E_printf_stack(ptr noundef @.str.2, ptr noundef @__func__.H5O__layout_copy, i32 noundef 986, i64 noundef %79, i64 noundef %80, ptr noundef @.str.43)
  br label %82

82:                                               ; preds = %78
  br label %83

83:                                               ; preds = %82
  store i8 1, ptr %8, align 1, !tbaa !21
  %84 = load i8, ptr %8, align 1, !tbaa !21, !range !23, !noundef !24
  %85 = trunc i8 %84 to i1
  %86 = zext i1 %85 to i8
  store i8 %86, ptr %8, align 1, !tbaa !21
  br label %87

87:                                               ; preds = %83
  br label %88

88:                                               ; preds = %87
  br label %89

89:                                               ; preds = %88
  store ptr null, ptr %7, align 8, !tbaa !20
  br label %171

90:                                               ; No predecessors!
  br label %91

91:                                               ; preds = %90
  br label %92

92:                                               ; preds = %91
  br label %93

93:                                               ; preds = %92
  br label %94

94:                                               ; preds = %93, %63
  %95 = load ptr, ptr %6, align 8, !tbaa !18
  %96 = getelementptr inbounds nuw %struct.H5O_layout_t, ptr %95, i32 0, i32 4
  %97 = getelementptr inbounds nuw %struct.H5O_storage_t, ptr %96, i32 0, i32 1
  %98 = getelementptr inbounds nuw %struct.H5O_storage_compact_t, ptr %97, i32 0, i32 2
  %99 = load ptr, ptr %98, align 8, !tbaa !29
  %100 = load ptr, ptr %5, align 8, !tbaa !18
  %101 = getelementptr inbounds nuw %struct.H5O_layout_t, ptr %100, i32 0, i32 4
  %102 = getelementptr inbounds nuw %struct.H5O_storage_t, ptr %101, i32 0, i32 1
  %103 = getelementptr inbounds nuw %struct.H5O_storage_compact_t, ptr %102, i32 0, i32 2
  %104 = load ptr, ptr %103, align 8, !tbaa !29
  %105 = load ptr, ptr %6, align 8, !tbaa !18
  %106 = getelementptr inbounds nuw %struct.H5O_layout_t, ptr %105, i32 0, i32 4
  %107 = getelementptr inbounds nuw %struct.H5O_storage_t, ptr %106, i32 0, i32 1
  %108 = getelementptr inbounds nuw %struct.H5O_storage_compact_t, ptr %107, i32 0, i32 1
  %109 = load i64, ptr %108, align 8, !tbaa !29
  call void @llvm.memcpy.p0.p0.i64(ptr align 1 %99, ptr align 1 %104, i64 %109, i1 false)
  br label %111

110:                                              ; preds = %56
  br label %111

111:                                              ; preds = %110, %94
  br label %169

112:                                              ; preds = %50
  %113 = load ptr, ptr %6, align 8, !tbaa !18
  %114 = getelementptr inbounds nuw %struct.H5O_layout_t, ptr %113, i32 0, i32 4
  %115 = getelementptr inbounds nuw %struct.H5O_storage_t, ptr %114, i32 0, i32 1
  %116 = getelementptr inbounds nuw %struct.H5O_storage_chunk_t, ptr %115, i32 0, i32 2
  %117 = load ptr, ptr %116, align 8, !tbaa !29
  %118 = icmp ne ptr %117, null
  br i1 %118, label %119, label %124

119:                                              ; preds = %112
  %120 = load ptr, ptr %6, align 8, !tbaa !18
  %121 = getelementptr inbounds nuw %struct.H5O_layout_t, ptr %120, i32 0, i32 4
  %122 = getelementptr inbounds nuw %struct.H5O_storage_t, ptr %121, i32 0, i32 1
  %123 = call i32 @H5D_chunk_idx_reset(ptr noundef %122, i1 noundef zeroext false)
  br label %124

124:                                              ; preds = %119, %112
  br label %169

125:                                              ; preds = %50
  %126 = load ptr, ptr %6, align 8, !tbaa !18
  %127 = call i32 @H5D__virtual_copy_layout(ptr noundef %126)
  %128 = icmp slt i32 %127, 0
  br i1 %128, label %129, label %148

129:                                              ; preds = %125
  br label %130

130:                                              ; preds = %129
  br label %131

131:                                              ; preds = %130
  br label %132

132:                                              ; preds = %131
  %133 = load i64, ptr @H5E_OHDR_g, align 8, !tbaa !14
  %134 = load i64, ptr @H5E_CANTCOPY_g, align 8, !tbaa !14
  %135 = call i32 (ptr, ptr, i32, i64, i64, ptr, ...) @H5E_printf_stack(ptr noundef @.str.2, ptr noundef @__func__.H5O__layout_copy, i32 noundef 1008, i64 noundef %133, i64 noundef %134, ptr noundef @.str.44)
  br label %136

136:                                              ; preds = %132
  br label %137

137:                                              ; preds = %136
  store i8 1, ptr %8, align 1, !tbaa !21
  %138 = load i8, ptr %8, align 1, !tbaa !21, !range !23, !noundef !24
  %139 = trunc i8 %138 to i1
  %140 = zext i1 %139 to i8
  store i8 %140, ptr %8, align 1, !tbaa !21
  br label %141

141:                                              ; preds = %137
  br label %142

142:                                              ; preds = %141
  br label %143

143:                                              ; preds = %142
  store ptr null, ptr %7, align 8, !tbaa !20
  br label %171

144:                                              ; No predecessors!
  br label %145

145:                                              ; preds = %144
  br label %146

146:                                              ; preds = %145
  br label %147

147:                                              ; preds = %146
  br label %148

148:                                              ; preds = %147, %125
  br label %169

149:                                              ; preds = %50, %50
  br label %150

150:                                              ; preds = %50, %149
  br label %151

151:                                              ; preds = %150
  br label %152

152:                                              ; preds = %151
  br label %153

153:                                              ; preds = %152
  %154 = load i64, ptr @H5E_OHDR_g, align 8, !tbaa !14
  %155 = load i64, ptr @H5E_CANTENCODE_g, align 8, !tbaa !14
  %156 = call i32 (ptr, ptr, i32, i64, i64, ptr, ...) @H5E_printf_stack(ptr noundef @.str.2, ptr noundef @__func__.H5O__layout_copy, i32 noundef 1014, i64 noundef %154, i64 noundef %155, ptr noundef @.str.40)
  br label %157

157:                                              ; preds = %153
  br label %158

158:                                              ; preds = %157
  store i8 1, ptr %8, align 1, !tbaa !21
  %159 = load i8, ptr %8, align 1, !tbaa !21, !range !23, !noundef !24
  %160 = trunc i8 %159 to i1
  %161 = zext i1 %160 to i8
  store i8 %161, ptr %8, align 1, !tbaa !21
  br label %162

162:                                              ; preds = %158
  br label %163

163:                                              ; preds = %162
  br label %164

164:                                              ; preds = %163
  store ptr null, ptr %7, align 8, !tbaa !20
  br label %171

165:                                              ; No predecessors!
  br label %166

166:                                              ; preds = %165
  br label %167

167:                                              ; preds = %166
  br label %168

168:                                              ; preds = %167
  br label %169

169:                                              ; preds = %168, %148, %124, %50, %111
  %170 = load ptr, ptr %6, align 8, !tbaa !18
  store ptr %170, ptr %7, align 8, !tbaa !20
  br label %171

171:                                              ; preds = %169, %164, %143, %89, %45
  %172 = load ptr, ptr %7, align 8, !tbaa !20
  %173 = icmp eq ptr %172, null
  br i1 %173, label %174, label %181

174:                                              ; preds = %171
  %175 = load ptr, ptr %4, align 8, !tbaa !20
  %176 = icmp eq ptr null, %175
  br i1 %176, label %177, label %180

177:                                              ; preds = %174
  %178 = load ptr, ptr %6, align 8, !tbaa !18
  %179 = call ptr @H5FL_reg_free(ptr noundef @H5_H5O_layout_t_reg_free_list, ptr noundef %178)
  store ptr %179, ptr %6, align 8, !tbaa !18
  br label %180

180:                                              ; preds = %177, %174
  br label %181

181:                                              ; preds = %180, %171
  br label %182

182:                                              ; preds = %181, %17
  %183 = load ptr, ptr %7, align 8, !tbaa !20
  call void @llvm.lifetime.end.p0(i64 1, ptr %8) #10
  call void @llvm.lifetime.end.p0(i64 8, ptr %7) #10
  call void @llvm.lifetime.end.p0(i64 8, ptr %6) #10
  call void @llvm.lifetime.end.p0(i64 8, ptr %5) #10
  ret ptr %183
}