; Function Attrs: nounwind uwtable
define internal noundef ptr @H5O__layout_copy(ptr noundef readonly captures(none) %0, ptr noundef %1) #0 {
  %3 = load i8, ptr @H5O_init_g, align 1, !tbaa !8, !range !10, !noundef !11
  %4 = trunc nuw i8 %3 to i1
  %5 = load i8, ptr @H5_libterm_g, align 1, !range !10
  %6 = trunc nuw i8 %5 to i1
  %7 = xor i1 %6, true
  %8 = select i1 %4, i1 true, i1 %7
  br i1 %8, label %9, label %.thread, !prof !12

9:                                                ; preds = %2
  %.not = icmp eq ptr %1, null
  br i1 %.not, label %10, label %16

10:                                               ; preds = %9
  %11 = tail call noalias ptr @H5FL_reg_malloc(ptr noundef nonnull @H5_H5O_layout_t_reg_free_list) #12
  %12 = icmp eq ptr %11, null
  br i1 %12, label %.thread35, label %16

.thread35:                                        ; preds = %10
  %13 = load i64, ptr @H5E_OHDR_g, align 8, !tbaa !13
  %14 = load i64, ptr @H5E_CANTALLOC_g, align 8, !tbaa !13
  %15 = tail call i32 (ptr, ptr, i32, i64, i64, ptr, ...) @H5E_printf_stack(ptr noundef nonnull @.str.2, ptr noundef nonnull @__func__.H5O__layout_copy, i32 noundef 971, i64 noundef %13, i64 noundef %14, ptr noundef nonnull @.str.42) #12
  br label %52

16:                                               ; preds = %10, %9
  %.024 = phi ptr [ %1, %9 ], [ %11, %10 ]
  tail call void @llvm.memcpy.p0.p0.i64(ptr noundef nonnull align 8 dereferenceable(2256) %.024, ptr noundef nonnull align 8 dereferenceable(2256) %0, i64 2256, i1 false), !tbaa.struct !65
  %17 = load i32, ptr %0, align 8, !tbaa !22
  switch i32 %17, label %47 [
    i32 0, label %18
    i32 1, label %.thread
    i32 2, label %34
    i32 3, label %40
  ]

18:                                               ; preds = %16
  %19 = getelementptr inbounds nuw i8, ptr %0, i64 1928
  %20 = load i64, ptr %19, align 8, !tbaa !20
  %.not31 = icmp eq i64 %20, 0
  br i1 %.not31, label %.thread, label %21

21:                                               ; preds = %18
  %22 = getelementptr inbounds nuw i8, ptr %.024, i64 1928
  %23 = load i64, ptr %22, align 8, !tbaa !20
  %24 = tail call noalias ptr @malloc(i64 noundef %23) #13
  %25 = getelementptr inbounds nuw i8, ptr %.024, i64 1936
  store ptr %24, ptr %25, align 8, !tbaa !20
  %26 = icmp eq ptr %24, null
  br i1 %26, label %27, label %31

27:                                               ; preds = %21
  %28 = load i64, ptr @H5E_OHDR_g, align 8, !tbaa !13
  %29 = load i64, ptr @H5E_NOSPACE_g, align 8, !tbaa !13
  %30 = tail call i32 (ptr, ptr, i32, i64, i64, ptr, ...) @H5E_printf_stack(ptr noundef nonnull @.str.2, ptr noundef nonnull @__func__.H5O__layout_copy, i32 noundef 986, i64 noundef %28, i64 noundef %29, ptr noundef nonnull @.str.43) #12
  br label %51

31:                                               ; preds = %21
  %32 = getelementptr inbounds nuw i8, ptr %0, i64 1936
  %33 = load ptr, ptr %32, align 8, !tbaa !20
  tail call void @llvm.memcpy.p0.p0.i64(ptr nonnull align 1 %24, ptr align 1 %33, i64 %23, i1 false)
  br label %.thread

34:                                               ; preds = %16
  %35 = getelementptr inbounds nuw i8, ptr %.024, i64 1936
  %36 = load ptr, ptr %35, align 8, !tbaa !20
  %.not30 = icmp eq ptr %36, null
  br i1 %.not30, label %.thread, label %37

37:                                               ; preds = %34
  %38 = getelementptr inbounds nuw i8, ptr %.024, i64 1920
  %39 = tail call i32 @H5D_chunk_idx_reset(ptr noundef nonnull %38, i1 noundef zeroext false) #12
  br label %.thread

40:                                               ; preds = %16
  %41 = tail call i32 @H5D__virtual_copy_layout(ptr noundef nonnull %.024) #12
  %42 = icmp slt i32 %41, 0
  br i1 %42, label %43, label %.thread

43:                                               ; preds = %40
  %44 = load i64, ptr @H5E_OHDR_g, align 8, !tbaa !13
  %45 = load i64, ptr @H5E_CANTCOPY_g, align 8, !tbaa !13
  %46 = tail call i32 (ptr, ptr, i32, i64, i64, ptr, ...) @H5E_printf_stack(ptr noundef nonnull @.str.2, ptr noundef nonnull @__func__.H5O__layout_copy, i32 noundef 1008, i64 noundef %44, i64 noundef %45, ptr noundef nonnull @.str.44) #12
  br label %51

47:                                               ; preds = %16
  %48 = load i64, ptr @H5E_OHDR_g, align 8, !tbaa !13
  %49 = load i64, ptr @H5E_CANTENCODE_g, align 8, !tbaa !13
  %50 = tail call i32 (ptr, ptr, i32, i64, i64, ptr, ...) @H5E_printf_stack(ptr noundef nonnull @.str.2, ptr noundef nonnull @__func__.H5O__layout_copy, i32 noundef 1014, i64 noundef %48, i64 noundef %49, ptr noundef nonnull @.str.40) #12
  br label %51

51:                                               ; preds = %47, %43, %27
  br i1 %.not, label %52, label %.thread

52:                                               ; preds = %.thread35, %51
  %.12537 = phi ptr [ null, %.thread35 ], [ %.024, %51 ]
  %53 = tail call ptr @H5FL_reg_free(ptr noundef nonnull @H5_H5O_layout_t_reg_free_list, ptr noundef %.12537) #12
  br label %.thread

.thread:                                          ; preds = %16, %18, %31, %37, %34, %40, %51, %52, %2
  %.0 = phi ptr [ null, %52 ], [ null, %51 ], [ null, %2 ], [ %.024, %40 ], [ %.024, %34 ], [ %.024, %37 ], [ %.024, %31 ], [ %.024, %18 ], [ %.024, %16 ]
  ret ptr %.0
}